; ModuleID = '46/2363.c'
source_filename = "46/2363.c"
target datalayout = "e-m:e-p270:32:32-p271:32:32-p272:64:64-i64:64-f80:128-n8:16:32:64-S128"
target triple = "x86_64-pc-linux-gnu"

@.str = private unnamed_addr constant [6 x i8] c"%d %d\00", align 1
@.str.1 = private unnamed_addr constant [3 x i8] c"%d\00", align 1
@.str.2 = private unnamed_addr constant [4 x i8] c"%d\0A\00", align 1

; Function Attrs: noinline nounwind uwtable
define dso_local i32 @main() #0 {
  %1 = alloca i32, align 4
  %2 = alloca [100 x [100 x i32]], align 16
  %3 = alloca i32, align 4
  %4 = alloca i32, align 4
  %5 = alloca i32, align 4
  %6 = alloca i32, align 4
  %7 = alloca i32, align 4
  %8 = alloca i32, align 4
  store i32 0, i32* %1, align 4
  store i32 0, i32* %8, align 4
  %9 = call i32 (i8*, ...) @__isoc99_scanf(i8* getelementptr inbounds ([6 x i8], [6 x i8]* @.str, i64 0, i64 0), i32* %3, i32* %4)
  store i32 0, i32* %5, align 4
  br label %10

10:                                               ; preds = %31, %0
  %11 = load i32, i32* %5, align 4
  %12 = load i32, i32* %3, align 4
  %13 = icmp slt i32 %11, %12
  br i1 %13, label %14, label %34

14:                                               ; preds = %10
  store i32 0, i32* %6, align 4
  br label %15

15:                                               ; preds = %27, %14
  %16 = load i32, i32* %6, align 4
  %17 = load i32, i32* %4, align 4
  %18 = icmp slt i32 %16, %17
  br i1 %18, label %19, label %30

19:                                               ; preds = %15
  %20 = load i32, i32* %5, align 4
  %21 = sext i32 %20 to i64
  %22 = getelementptr inbounds [100 x [100 x i32]], [100 x [100 x i32]]* %2, i64 0, i64 %21
  %23 = load i32, i32* %6, align 4
  %24 = sext i32 %23 to i64
  %25 = getelementptr inbounds [100 x i32], [100 x i32]* %22, i64 0, i64 %24
  %26 = call i32 (i8*, ...) @__isoc99_scanf(i8* getelementptr inbounds ([3 x i8], [3 x i8]* @.str.1, i64 0, i64 0), i32* %25)
  br label %27

27:                                               ; preds = %19
  %28 = load i32, i32* %6, align 4
  %29 = add nsw i32 %28, 1
  store i32 %29, i32* %6, align 4
  br label %15

30:                                               ; preds = %15
  br label %31

31:                                               ; preds = %30
  %32 = load i32, i32* %5, align 4
  %33 = add nsw i32 %32, 1
  store i32 %33, i32* %5, align 4
  br label %10

34:                                               ; preds = %10
  store i32 0, i32* %7, align 4
  br label %35

35:                                               ; preds = %173, %34
  %36 = load i32, i32* %7, align 4
  %37 = load i32, i32* %3, align 4
  %38 = icmp slt i32 %36, %37
  br i1 %38, label %39, label %176

39:                                               ; preds = %35
  %40 = load i32, i32* %8, align 4
  %41 = load i32, i32* %3, align 4
  %42 = load i32, i32* %4, align 4
  %43 = mul nsw i32 %41, %42
  %44 = icmp eq i32 %40, %43
  br i1 %44, label %45, label %46

45:                                               ; preds = %39
  br label %176

46:                                               ; preds = %39
  %47 = load i32, i32* %7, align 4
  store i32 %47, i32* %6, align 4
  br label %48

48:                                               ; preds = %65, %46
  %49 = load i32, i32* %6, align 4
  %50 = load i32, i32* %4, align 4
  %51 = load i32, i32* %7, align 4
  %52 = sub nsw i32 %50, %51
  %53 = icmp slt i32 %49, %52
  br i1 %53, label %54, label %68

54:                                               ; preds = %48
  %55 = load i32, i32* %7, align 4
  %56 = sext i32 %55 to i64
  %57 = getelementptr inbounds [100 x [100 x i32]], [100 x [100 x i32]]* %2, i64 0, i64 %56
  %58 = load i32, i32* %6, align 4
  %59 = sext i32 %58 to i64
  %60 = getelementptr inbounds [100 x i32], [100 x i32]* %57, i64 0, i64 %59
  %61 = load i32, i32* %60, align 4
  %62 = call i32 (i8*, ...) @printf(i8* getelementptr inbounds ([4 x i8], [4 x i8]* @.str.2, i64 0, i64 0), i32 %61)
  %63 = load i32, i32* %8, align 4
  %64 = add nsw i32 %63, 1
  store i32 %64, i32* %8, align 4
  br label %65

65:                                               ; preds = %54
  %66 = load i32, i32* %6, align 4
  %67 = add nsw i32 %66, 1
  store i32 %67, i32* %6, align 4
  br label %48

68:                                               ; preds = %48
  %69 = load i32, i32* %8, align 4
  %70 = load i32, i32* %3, align 4
  %71 = load i32, i32* %4, align 4
  %72 = mul nsw i32 %70, %71
  %73 = icmp eq i32 %69, %72
  br i1 %73, label %74, label %75

74:                                               ; preds = %68
  br label %176

75:                                               ; preds = %68
  %76 = load i32, i32* %7, align 4
  %77 = add nsw i32 %76, 1
  store i32 %77, i32* %5, align 4
  br label %78

78:                                               ; preds = %98, %75
  %79 = load i32, i32* %5, align 4
  %80 = load i32, i32* %3, align 4
  %81 = load i32, i32* %7, align 4
  %82 = sub nsw i32 %80, %81
  %83 = icmp slt i32 %79, %82
  br i1 %83, label %84, label %101

84:                                               ; preds = %78
  %85 = load i32, i32* %5, align 4
  %86 = sext i32 %85 to i64
  %87 = getelementptr inbounds [100 x [100 x i32]], [100 x [100 x i32]]* %2, i64 0, i64 %86
  %88 = load i32, i32* %4, align 4
  %89 = load i32, i32* %7, align 4
  %90 = sub nsw i32 %88, %89
  %91 = sub nsw i32 %90, 1
  %92 = sext i32 %91 to i64
  %93 = getelementptr inbounds [100 x i32], [100 x i32]* %87, i64 0, i64 %92
  %94 = load i32, i32* %93, align 4
  %95 = call i32 (i8*, ...) @printf(i8* getelementptr inbounds ([4 x i8], [4 x i8]* @.str.2, i64 0, i64 0), i32 %94)
  %96 = load i32, i32* %8, align 4
  %97 = add nsw i32 %96, 1
  store i32 %97, i32* %8, align 4
  br label %98

98:                                               ; preds = %84
  %99 = load i32, i32* %5, align 4
  %100 = add nsw i32 %99, 1
  store i32 %100, i32* %5, align 4
  br label %78

101:                                              ; preds = %78
  %102 = load i32, i32* %8, align 4
  %103 = load i32, i32* %3, align 4
  %104 = load i32, i32* %4, align 4
  %105 = mul nsw i32 %103, %104
  %106 = icmp eq i32 %102, %105
  br i1 %106, label %107, label %108

107:                                              ; preds = %101
  br label %176

108:                                              ; preds = %101
  %109 = load i32, i32* %4, align 4
  %110 = load i32, i32* %7, align 4
  %111 = sub nsw i32 %109, %110
  %112 = sub nsw i32 %111, 2
  store i32 %112, i32* %6, align 4
  br label %113

113:                                              ; preds = %131, %108
  %114 = load i32, i32* %6, align 4
  %115 = load i32, i32* %7, align 4
  %116 = icmp sge i32 %114, %115
  br i1 %116, label %117, label %134

117:                                              ; preds = %113
  %118 = load i32, i32* %3, align 4
  %119 = load i32, i32* %7, align 4
  %120 = sub nsw i32 %118, %119
  %121 = sub nsw i32 %120, 1
  %122 = sext i32 %121 to i64
  %123 = getelementptr inbounds [100 x [100 x i32]], [100 x [100 x i32]]* %2, i64 0, i64 %122
  %124 = load i32, i32* %6, align 4
  %125 = sext i32 %124 to i64
  %126 = getelementptr inbounds [100 x i32], [100 x i32]* %123, i64 0, i64 %125
  %127 = load i32, i32* %126, align 4
  %128 = call i32 (i8*, ...) @printf(i8* getelementptr inbounds ([4 x i8], [4 x i8]* @.str.2, i64 0, i64 0), i32 %127)
  %129 = load i32, i32* %8, align 4
  %130 = add nsw i32 %129, 1
  store i32 %130, i32* %8, align 4
  br label %131

131:                                              ; preds = %117
  %132 = load i32, i32* %6, align 4
  %133 = add nsw i32 %132, -1
  store i32 %133, i32* %6, align 4
  br label %113

134:                                              ; preds = %113
  %135 = load i32, i32* %8, align 4
  %136 = load i32, i32* %3, align 4
  %137 = load i32, i32* %4, align 4
  %138 = mul nsw i32 %136, %137
  %139 = icmp eq i32 %135, %138
  br i1 %139, label %140, label %141

140:                                              ; preds = %134
  br label %176

141:                                              ; preds = %134
  %142 = load i32, i32* %3, align 4
  %143 = load i32, i32* %7, align 4
  %144 = sub nsw i32 %142, %143
  %145 = sub nsw i32 %144, 2
  store i32 %145, i32* %5, align 4
  br label %146

146:                                              ; preds = %162, %141
  %147 = load i32, i32* %5, align 4
  %148 = load i32, i32* %7, align 4
  %149 = add nsw i32 %148, 1
  %150 = icmp sge i32 %147, %149
  br i1 %150, label %151, label %165

151:                                              ; preds = %146
  %152 = load i32, i32* %5, align 4
  %153 = sext i32 %152 to i64
  %154 = getelementptr inbounds [100 x [100 x i32]], [100 x [100 x i32]]* %2, i64 0, i64 %153
  %155 = load i32, i32* %7, align 4
  %156 = sext i32 %155 to i64
  %157 = getelementptr inbounds [100 x i32], [100 x i32]* %154, i64 0, i64 %156
  %158 = load i32, i32* %157, align 4
  %159 = call i32 (i8*, ...) @printf(i8* getelementptr inbounds ([4 x i8], [4 x i8]* @.str.2, i64 0, i64 0), i32 %158)
  %160 = load i32, i32* %8, align 4
  %161 = add nsw i32 %160, 1
  store i32 %161, i32* %8, align 4
  br label %162

162:                                              ; preds = %151
  %163 = load i32, i32* %5, align 4
  %164 = add nsw i32 %163, -1
  store i32 %164, i32* %5, align 4
  br label %146

165:                                              ; preds = %146
  %166 = load i32, i32* %8, align 4
  %167 = load i32, i32* %3, align 4
  %168 = load i32, i32* %4, align 4
  %169 = mul nsw i32 %167, %168
  %170 = icmp eq i32 %166, %169
  br i1 %170, label %171, label %172

171:                                              ; preds = %165
  br label %176

172:                                              ; preds = %165
  br label %173

173:                                              ; preds = %172
  %174 = load i32, i32* %7, align 4
  %175 = add nsw i32 %174, 1
  store i32 %175, i32* %7, align 4
  br label %35

176:                                              ; preds = %171, %140, %107, %74, %45, %35
  ret i32 0
}

declare dso_local i32 @__isoc99_scanf(i8*, ...) #1

declare dso_local i32 @printf(i8*, ...) #1


!llvm.module.flags = !{!0}
!llvm.ident = !{!1}

!0 = !{i32 1, !"wchar_size", i32 4}
!1 = !{!"clang version 10.0.0-4ubuntu1 "}
